Sections:
00: ".bss" (0-3FFE)
01: ".text" (0-159)
02: ".data" (0-0)
03: ".rodata" (0-36)


Source: "sieve.t64"
                                    	     1:  
                                    	     2: 	.bss
                                    	     3: 	.align	8
                                    	     4: 
                                    	     5: 	.bss
00:0000000000000000 00              	     6: .lcomm _flags,16382
00:0000000000000001 *
                                    	     7: 	.type	_flags,@object
                                    	     8: 	.size	_flags,16382
                                    	     9: 
                                    	    10: 
                                    	    11:  
                                    	    12: #{++ _main
                                    	    13: 
                                    	    14: 	.text
                                    	    15: 	.align	0
                                    	    16: 
                                    	    17: 	.align 5
                                    	    18: 
                                    	    19: 	.sdreg	61
                                    	    20:  
                                    	    21: 	.data
                                    	    22: 	.align	14
                                    	    23: 
                                    	    24: 	.align	14
                                    	    25: 
                                    	    26: 	.align	14
                                    	    27: 
                                    	    28: 	.align	14
                                    	    29: 
                                    	    30: 	.text
                                    	    31: 	.align	0
                                    	    32: #====================================================
                                    	    33: # Basic Block 0
                                    	    34: #====================================================
                                    	    35: _main:
01:0000000000000000 D4000068FF      	    36:   sub      sp,sp,48
01:0000000000000005 D200BE1F00      	    37:   std      fp,[sp]
01:000000000000000A 133E3F0000      	    38:   mov      fp,sp
01:000000000000000F D400004AFF      	    39:   sub      sp,sp,108
01:0000000000000014 D230391F00      	    40:   std      lr1,24[fp]
01:0000000000000019 1E000000001F0000	    41:   lea      gp,_bss_start
01:0000000000000021 0000
01:0000000000000023 1E000000001F0000	    42:   lea      gp1,_rodata_start
01:000000000000002B 0000
01:000000000000002D D2008F1F00      	    43:   std      s0,0[sp]
01:0000000000000032 D218901F00      	    44:   std      s1,12[sp]
01:0000000000000037 D230911F00      	    45:   std      s2,24[sp]
01:000000000000003C D248921F00      	    46:   std      s3,36[sp]
01:0000000000000041 D260931F00      	    47:   std      s4,48[sp]
                                    	    48: # printf("10 iterations\n");
01:0000000000000046 1E00051E00      	    49:   lea      t0,SIEVE_1[gp1]
01:000000000000004B D200851F00      	    50:   std      t0,0[sp]
01:0000000000000050 2002000000      	    51:   jsr      _printf
01:0000000000000055 043F3F0600      	    52:   add      sp,sp,12
                                    	    53: # for(iter=1;iter<= 10;iter++){
01:000000000000005A 0410800000      	    54:   ldi      s1,1
01:000000000000005F 0405000500      	    55:   ldi      t0,10
01:0000000000000064 3C14100E01      	    56:   blt      t0,s1,.00027
                                    	    57: .00026:
                                    	    58: # count=0;
01:0000000000000069 1312000000      	    59:   mov      s3,r0
                                    	    60: # for(i = 0; i<=8190;i++)
01:000000000000006E 130F000000      	    61:   mov      s0,r0
01:0000000000000073 0405007F1F      	    62:   ldi      t0,8190
01:0000000000000078 3C140F9B00      	    63:   blt      t0,s0,.00030
                                    	    64: .00029:
                                    	    65: # flags[i]=true;
01:000000000000007D 0406800000      	    66:   ldi      t1,1
01:0000000000000082 3200869E1E1F0000	    67:   stw      t1,_flags[gp+s0*]
01:000000000000008A 0000
                                    	    68: .00031:
01:000000000000008C 040F8F0000      	    69:   add      s0,s0,1
01:0000000000000091 0405007F1F      	    70:   ldi      t0,8190
01:0000000000000096 3C150F7D00      	    71:   bge      t0,s0,.00029
                                    	    72: .00030:
                                    	    73: # for(i=0;i <= 8190; i++){
01:000000000000009B 130F000000      	    74:   mov      s0,r0
01:00000000000000A0 0405007F1F      	    75:   ldi      t0,8190
01:00000000000000A5 3C140FFF00      	    76:   blt      t0,s0,.00033
                                    	    77: .00032:
                                    	    78: # if(flags[i]){
01:00000000000000AA 30008C9E1E1F0000	    79:   ldw      t7,_flags[gp+s0*]
01:00000000000000B2 0000
01:00000000000000B4 DC3000F000      	    80:   beqz     t7,.00035
                                    	    81: # prime = i+i+3;
01:00000000000000B9 02068F0710      	    82:   add      t1,s0,s0
01:00000000000000BE 0413860100      	    83:   add      s4,t1,3
                                    	    84: # k=i+prime;
01:00000000000000C3 02118F0910      	    85:   add      s2,s0,s4
                                    	    86: # while(k<=8190){
01:00000000000000C8 0405007F1F      	    87:   ldi      t0,8190
01:00000000000000CD 3C1411EB00      	    88:   blt      t0,s2,.00038
                                    	    89: .00037:
                                    	    90: # flags[k] = false;
01:00000000000000D2 3200809E221F0000	    91:   stw      r0,_flags[gp+s2*]
01:00000000000000DA 0000
                                    	    92: # k += prime;
01:00000000000000DC 0211910910      	    93:   add      s2,s2,s4
01:00000000000000E1 0405007F1F      	    94:   ldi      t0,8190
01:00000000000000E6 3C1511D200      	    95:   bge      t0,s2,.00037
                                    	    96: .00038:
                                    	    97: # count = count+1;
01:00000000000000EB 0412920000      	    98:   add      s3,s3,1
                                    	    99: .00035:
01:00000000000000F0 040F8F0000      	   100:   add      s0,s0,1
01:00000000000000F5 0405007F1F      	   101:   ldi      t0,8190
01:00000000000000FA 3C150FAA00      	   102:   bge      t0,s0,.00032
                                    	   103: .00033:
                                    	   104: .00028:
01:00000000000000FF 0410900000      	   105:   add      s1,s1,1
01:0000000000000104 0405000500      	   106:   ldi      t0,10
01:0000000000000109 3C15106900      	   107:   bge      t0,s1,.00026
                                    	   108: .00027:
                                    	   109: # printf("\n%d primes\n",count);
01:000000000000010E D200921F00      	   110:   std      s3,0[sp]
01:0000000000000113 1E3C051E00      	   111:   lea      t0,SIEVE_2[gp1]
01:0000000000000118 D218851F00      	   112:   std      t0,12[sp]
01:000000000000011D 2002000000      	   113:   jsr      _printf
01:0000000000000122 043F3F0C00      	   114:   add      sp,sp,24
                                    	   115: .00025:
01:0000000000000127 D0008F1F00      	   116:   ldd      s0,0[sp]
01:000000000000012C D018901F00      	   117:   ldd      s1,12[sp]
01:0000000000000131 D030911F00      	   118:   ldd      s2,24[sp]
01:0000000000000136 D048921F00      	   119:   ldd      s3,36[sp]
01:000000000000013B D060931F00      	   120:   ldd      s4,48[sp]
01:0000000000000140 D030391F00      	   121:   ldd      lr1,24[fp]
01:0000000000000145 133F3E0000      	   122:   mov      sp,fp
01:000000000000014A D000BE1F00      	   123:   ldd      fp,[sp]
01:000000000000014F 043F3F1800      	   124:   add      sp,sp,48
01:0000000000000154 F202000000      	   125:   ret    
                                    	   126: 	.type	_main,@function
                                    	   127: 	.size	_main,$-_main
                                    	   128: 
                                    	   129: 
                                    	   130: #--}
                                    	   131: 
                                    	   132: 	.rodata
                                    	   133: 	.align	14
                                    	   134: 
                                    	   135: 	.align	8
                                    	   136: 
                                    	   137: 
                                    	   138: 	.type	SIEVE_1,@object
                                    	   139: 	.size	SIEVE_1,30
                                    	   140: SIEVE_1: # 10 iterations
                                    	   141: 
03:0000000000000000 3100            	   142: 	.2byte	49,48,32,105,116,101,114,97
03:0000000000000002 3000
03:0000000000000004 2000
03:0000000000000006 6900
03:0000000000000008 7400
03:000000000000000A 6500
03:000000000000000C 7200
03:000000000000000E 6100
03:0000000000000010 7400            	   143: 	.2byte	116,105,111,110,115,10,0
03:0000000000000012 6900
03:0000000000000014 6F00
03:0000000000000016 6E00
03:0000000000000018 7300
03:000000000000001A 0A00
03:000000000000001C 0000
                                    	   144: 	.type	SIEVE_2,@object
                                    	   145: 	.size	SIEVE_2,24
                                    	   146: SIEVE_2: # %d primes
                                    	   147: 
03:000000000000001E 0A00            	   148: 	.2byte	10,37,100,32,112,114,105,109
03:0000000000000020 2500
03:0000000000000022 6400
03:0000000000000024 2000
03:0000000000000026 7000
03:0000000000000028 7200
03:000000000000002A 6900
03:000000000000002C 6D00
03:000000000000002E 6500            	   149: 	.2byte	101,115,10,0
03:0000000000000030 7300
03:0000000000000032 0A00
03:0000000000000034 0000
                                    	   150: 	.extern	_printf
                                    	   151: 


Symbols by name:
SIEVE_1                         03:0000000000000000
SIEVE_2                         03:000000000000001E
_bss_start                      external
_flags                          00:0000000000000000
_main                           01:0000000000000000
_printf                         external EXP
_rodata_start                   external

Symbols by value:
0000000000000000 _flags
0000000000000000 _main
0000000000000000 SIEVE_1
000000000000001E SIEVE_2
